; Function Attrs: nounwind uwtable
define hidden zeroext i1 @SDL_HasJoystick_REAL() local_unnamed_addr #1 {
  %1 = tail call i32 @SDL_AddAtomicInt_REAL(ptr noundef nonnull @SDL_joystick_lock_pending, i32 noundef 1) #13
  %2 = load ptr, ptr @SDL_joystick_lock, align 8
  tail call void @SDL_LockMutex_REAL(ptr noundef %2) #13
  %3 = tail call i32 @SDL_AddAtomicInt_REAL(ptr noundef nonnull @SDL_joystick_lock_pending, i32 noundef -1) #13
  %4 = load i32, ptr @SDL_joysticks_locked, align 4
  %5 = add nsw i32 %4, 1
  store i32 %5, ptr @SDL_joysticks_locked, align 4
  br label %6

6:                                                ; preds = %0, %6
  %indvars.iv = phi i64 [ 0, %0 ], [ %indvars.iv.next, %6 ]
  %.09 = phi i32 [ 0, %0 ], [ %12, %6 ]
  %7 = getelementptr inbounds nuw [3 x ptr], ptr @SDL_joystick_drivers, i64 0, i64 %indvars.iv
  %8 = load ptr, ptr %7, align 8
  %9 = getelementptr inbounds nuw i8, ptr %8, i64 8
  %10 = load ptr, ptr %9, align 8
  %11 = tail call i32 %10() #13
  %12 = add nsw i32 %11, %.09
  %indvars.iv.next = add nuw nsw i64 %indvars.iv, 1
  %exitcond.not = icmp eq i64 %indvars.iv.next, 3
  br i1 %exitcond.not, label %13, label %6, !llvm.loop !9

13:                                               ; preds = %6
  %14 = load i32, ptr @SDL_joysticks_locked, align 4
  %15 = add nsw i32 %14, -1
  store i32 %15, ptr @SDL_joysticks_locked, align 4
  %.b4.i = load i1, ptr @SDL_joysticks_initialized, align 1
  %16 = icmp ne i32 %15, 0
  %or.cond.i = select i1 %.b4.i, i1 true, i1 %16
  br i1 %or.cond.i, label %.critedge.i, label %17

17:                                               ; preds = %13
  %18 = tail call i32 @SDL_GetAtomicInt_REAL(ptr noundef nonnull @SDL_joystick_lock_pending) #13
  %19 = icmp eq i32 %18, 0
  br i1 %19, label %20, label %.critedge.i

20:                                               ; preds = %17
  %21 = load ptr, ptr @SDL_joystick_lock, align 8
  tail call void @SDL_LockMutex_REAL(ptr noundef %21) #13
  %22 = load ptr, ptr @SDL_joystick_lock, align 8
  tail call void @SDL_UnlockMutex_REAL(ptr noundef %22) #13
  store ptr null, ptr @SDL_joystick_lock, align 8
  tail call void @SDL_UnlockMutex_REAL(ptr noundef %21) #13
  tail call void @SDL_DestroyMutex_REAL(ptr noundef %21) #13
  br label %SDL_UnlockJoysticks_REAL.exit

.critedge.i:                                      ; preds = %17, %13
  %23 = load ptr, ptr @SDL_joystick_lock, align 8
  tail call void @SDL_UnlockMutex_REAL(ptr noundef %23) #13
  br label %SDL_UnlockJoysticks_REAL.exit

SDL_UnlockJoysticks_REAL.exit:                    ; preds = %20, %.critedge.i
  %24 = icmp sgt i32 %12, 0
  ret i1 %24
}